; Function Attrs: mustprogress uwtable
define internal noundef zeroext i1 @"_ZNSt17_Function_handlerIFNSt7__cxx1112basic_stringIcSt11char_traitsIcESaIcEEEmmEZN3nix16RemoteFSAccessor5fetchERKNS7_9CanonPathEE3$_0E10_M_managerERSt9_Any_dataRKSE_St18_Manager_operation"(ptr nocapture noundef nonnull align 8 dereferenceable(16) %0, ptr nocapture noundef nonnull readonly align 8 dereferenceable(16) %1, i32 noundef %2) #4 align 2 personality ptr @__gxx_personality_v0 {
  switch i32 %2, label %"_ZNSt14_Function_base13_Base_managerIZN3nix16RemoteFSAccessor5fetchERKNS1_9CanonPathEE3$_0E10_M_managerERSt9_Any_dataRKS8_St18_Manager_operation.exit" [
    i32 0, label %4
    i32 1, label %5
    i32 3, label %10
    i32 2, label %6
  ]

4:                                                ; preds = %3
  store ptr @"_ZTIZN3nix16RemoteFSAccessor5fetchERKNS_9CanonPathEE3$_0", ptr %0, align 8
  br label %"_ZNSt14_Function_base13_Base_managerIZN3nix16RemoteFSAccessor5fetchERKNS1_9CanonPathEE3$_0E10_M_managerERSt9_Any_dataRKS8_St18_Manager_operation.exit"

5:                                                ; preds = %3
  %.val = load ptr, ptr %1, align 8
  store ptr %.val, ptr %0, align 8
  br label %"_ZNSt14_Function_base13_Base_managerIZN3nix16RemoteFSAccessor5fetchERKNS1_9CanonPathEE3$_0E10_M_managerERSt9_Any_dataRKS8_St18_Manager_operation.exit"

6:                                                ; preds = %3
  %.val6 = load ptr, ptr %1, align 8
  %7 = tail call noalias noundef nonnull dereferenceable(32) ptr @_Znwm(i64 noundef 32) #29
  invoke void @_ZNSt7__cxx1112basic_stringIcSt11char_traitsIcESaIcEEC2ERKS4_(ptr noundef nonnull align 8 dereferenceable(32) %7, ptr noundef nonnull align 8 dereferenceable(32) %.val6)
          to label %"_ZNSt14_Function_base13_Base_managerIZN3nix16RemoteFSAccessor5fetchERKNS1_9CanonPathEE3$_0E15_M_init_functorIRKS6_EEvRSt9_Any_dataOT_.exit.i" unwind label %8

8:                                                ; preds = %6
  %9 = landingpad { ptr, i32 }
          cleanup
  tail call void @_ZdlPv(ptr noundef nonnull %7) #27
  resume { ptr, i32 } %9

"_ZNSt14_Function_base13_Base_managerIZN3nix16RemoteFSAccessor5fetchERKNS1_9CanonPathEE3$_0E15_M_init_functorIRKS6_EEvRSt9_Any_dataOT_.exit.i": ; preds = %6
  store ptr %7, ptr %0, align 8
  br label %"_ZNSt14_Function_base13_Base_managerIZN3nix16RemoteFSAccessor5fetchERKNS1_9CanonPathEE3$_0E10_M_managerERSt9_Any_dataRKS8_St18_Manager_operation.exit"

10:                                               ; preds = %3
  %.val7.i = load ptr, ptr %0, align 8
  %11 = icmp eq ptr %.val7.i, null
  br i1 %11, label %"_ZNSt14_Function_base13_Base_managerIZN3nix16RemoteFSAccessor5fetchERKNS1_9CanonPathEE3$_0E10_M_managerERSt9_Any_dataRKS8_St18_Manager_operation.exit", label %12

12:                                               ; preds = %10
  %13 = load ptr, ptr %.val7.i, align 8
  %14 = getelementptr inbounds i8, ptr %.val7.i, i64 16
  %15 = icmp eq ptr %13, %14
  br i1 %15, label %_ZNKSt7__cxx1112basic_stringIcSt11char_traitsIcESaIcEE11_M_is_localEv.exit.thread.i.i.i.i.i, label %_ZNKSt7__cxx1112basic_stringIcSt11char_traitsIcESaIcEE11_M_is_localEv.exit.i.i.i.i.i

_ZNKSt7__cxx1112basic_stringIcSt11char_traitsIcESaIcEE11_M_is_localEv.exit.thread.i.i.i.i.i: ; preds = %12
  %16 = getelementptr inbounds i8, ptr %.val7.i, i64 8
  %17 = load i64, ptr %16, align 8
  %18 = icmp ult i64 %17, 16
  tail call void @llvm.assume(i1 %18)
  br label %"_ZZN3nix16RemoteFSAccessor5fetchERKNS_9CanonPathEEN3$_0D2Ev.exit.i.i"

_ZNKSt7__cxx1112basic_stringIcSt11char_traitsIcESaIcEE11_M_is_localEv.exit.i.i.i.i.i: ; preds = %12
  tail call void @_ZdlPv(ptr noundef %13) #27
  br label %"_ZZN3nix16RemoteFSAccessor5fetchERKNS_9CanonPathEEN3$_0D2Ev.exit.i.i"

"_ZZN3nix16RemoteFSAccessor5fetchERKNS_9CanonPathEEN3$_0D2Ev.exit.i.i": ; preds = %_ZNKSt7__cxx1112basic_stringIcSt11char_traitsIcESaIcEE11_M_is_localEv.exit.i.i.i.i.i, %_ZNKSt7__cxx1112basic_stringIcSt11char_traitsIcESaIcEE11_M_is_localEv.exit.thread.i.i.i.i.i
  tail call void @_ZNSaIcED2Ev(ptr noundef nonnull align 1 dereferenceable(1) %.val7.i) #26
  tail call void @_ZdlPv(ptr noundef nonnull %.val7.i) #27
  br label %"_ZNSt14_Function_base13_Base_managerIZN3nix16RemoteFSAccessor5fetchERKNS1_9CanonPathEE3$_0E10_M_managerERSt9_Any_dataRKS8_St18_Manager_operation.exit"

"_ZNSt14_Function_base13_Base_managerIZN3nix16RemoteFSAccessor5fetchERKNS1_9CanonPathEE3$_0E10_M_managerERSt9_Any_dataRKS8_St18_Manager_operation.exit": ; preds = %3, %"_ZZN3nix16RemoteFSAccessor5fetchERKNS_9CanonPathEEN3$_0D2Ev.exit.i.i", %10, %"_ZNSt14_Function_base13_Base_managerIZN3nix16RemoteFSAccessor5fetchERKNS1_9CanonPathEE3$_0E15_M_init_functorIRKS6_EEvRSt9_Any_dataOT_.exit.i", %5, %4
  ret i1 false
}